target datalayout = "e-m:e-p270:32:32-p271:32:32-p272:64:64-i64:64-i128:128-f80:128-n8:16:32:64-S128"
target triple = "x86_64-pc-linux-gnu"

%struct.SurfaceDataRasInfo = type { %struct.SurfaceDataBounds, ptr, i32, i32, i32, i32, ptr, ptr, ptr, ptr, ptr, ptr, i32, %union.anon.0 }
%struct.SurfaceDataBounds = type { i32, i32, i32, i32 }
%union.anon.0 = type { ptr, [56 x i8] }

; Function Attrs: nounwind uwtable
define hidden void @Ushort555RgbToIntArgbConvert(ptr noundef %0, ptr noundef %1, i32 noundef %2, i32 noundef %3, ptr noundef %4, ptr noundef %5, ptr noundef %6, ptr noundef %7) #1 {
  %9 = alloca ptr, align 8
  %10 = alloca ptr, align 8
  %11 = alloca i32, align 4
  %12 = alloca i32, align 4
  %13 = alloca ptr, align 8
  %14 = alloca ptr, align 8
  %15 = alloca ptr, align 8
  %16 = alloca ptr, align 8
  %17 = alloca ptr, align 8
  %18 = alloca ptr, align 8
  %19 = alloca i32, align 4
  %20 = alloca i32, align 4
  %21 = alloca i32, align 4
  %22 = alloca i32, align 4
  %23 = alloca i32, align 4
  %24 = alloca i32, align 4
  %25 = alloca i16, align 2
  store ptr %0, ptr %9, align 8
  store ptr %1, ptr %10, align 8
  store i32 %2, ptr %11, align 4
  store i32 %3, ptr %12, align 4
  store ptr %4, ptr %13, align 8
  store ptr %5, ptr %14, align 8
  store ptr %6, ptr %15, align 8
  store ptr %7, ptr %16, align 8
  br label %26

26:                                               ; preds = %8
  %27 = load ptr, ptr %9, align 8
  store ptr %27, ptr %17, align 8
  %28 = load ptr, ptr %10, align 8
  store ptr %28, ptr %18, align 8
  %29 = load ptr, ptr %13, align 8
  %30 = getelementptr inbounds %struct.SurfaceDataRasInfo, ptr %29, i32 0, i32 4
  %31 = load i32, ptr %30, align 8
  store i32 %31, ptr %19, align 4
  %32 = load ptr, ptr %14, align 8
  %33 = getelementptr inbounds %struct.SurfaceDataRasInfo, ptr %32, i32 0, i32 4
  %34 = load i32, ptr %33, align 8
  store i32 %34, ptr %20, align 4
  %35 = load i32, ptr %11, align 4
  %36 = mul i32 %35, 2
  %37 = load i32, ptr %19, align 4
  %38 = sub i32 %37, %36
  store i32 %38, ptr %19, align 4
  %39 = load i32, ptr %11, align 4
  %40 = mul i32 %39, 4
  %41 = load i32, ptr %20, align 4
  %42 = sub i32 %41, %40
  store i32 %42, ptr %20, align 4
  br label %43

43:                                               ; preds = %115, %26
  %44 = load i32, ptr %11, align 4
  store i32 %44, ptr %21, align 4
  br label %45

45:                                               ; preds = %98, %43
  br label %46

46:                                               ; preds = %45
  br label %47

47:                                               ; preds = %46
  %48 = load ptr, ptr %17, align 8
  %49 = getelementptr inbounds i16, ptr %48, i64 0
  %50 = load i16, ptr %49, align 2
  store i16 %50, ptr %25, align 2
  %51 = load i16, ptr %25, align 2
  %52 = zext i16 %51 to i32
  %53 = ashr i32 %52, 10
  %54 = and i32 %53, 31
  store i32 %54, ptr %22, align 4
  %55 = load i32, ptr %22, align 4
  %56 = shl i32 %55, 3
  %57 = load i32, ptr %22, align 4
  %58 = ashr i32 %57, 2
  %59 = or i32 %56, %58
  store i32 %59, ptr %22, align 4
  %60 = load i16, ptr %25, align 2
  %61 = zext i16 %60 to i32
  %62 = ashr i32 %61, 5
  %63 = and i32 %62, 31
  store i32 %63, ptr %23, align 4
  %64 = load i32, ptr %23, align 4
  %65 = shl i32 %64, 3
  %66 = load i32, ptr %23, align 4
  %67 = ashr i32 %66, 2
  %68 = or i32 %65, %67
  store i32 %68, ptr %23, align 4
  %69 = load i16, ptr %25, align 2
  %70 = zext i16 %69 to i32
  %71 = ashr i32 %70, 0
  %72 = and i32 %71, 31
  store i32 %72, ptr %24, align 4
  %73 = load i32, ptr %24, align 4
  %74 = shl i32 %73, 3
  %75 = load i32, ptr %24, align 4
  %76 = ashr i32 %75, 2
  %77 = or i32 %74, %76
  store i32 %77, ptr %24, align 4
  br label %78

78:                                               ; preds = %47
  %79 = load i32, ptr %22, align 4
  %80 = or i32 65280, %79
  %81 = shl i32 %80, 8
  %82 = load i32, ptr %23, align 4
  %83 = or i32 %81, %82
  %84 = shl i32 %83, 8
  %85 = load i32, ptr %24, align 4
  %86 = or i32 %84, %85
  %87 = load ptr, ptr %18, align 8
  %88 = getelementptr inbounds i32, ptr %87, i64 0
  store i32 %86, ptr %88, align 4
  br label %89

89:                                               ; preds = %78
  %90 = load ptr, ptr %17, align 8
  %91 = ptrtoint ptr %90 to i64
  %92 = add nsw i64 %91, 2
  %93 = inttoptr i64 %92 to ptr
  store ptr %93, ptr %17, align 8
  %94 = load ptr, ptr %18, align 8
  %95 = ptrtoint ptr %94 to i64
  %96 = add nsw i64 %95, 4
  %97 = inttoptr i64 %96 to ptr
  store ptr %97, ptr %18, align 8
  br label %98

98:                                               ; preds = %89
  %99 = load i32, ptr %21, align 4
  %100 = add i32 %99, -1
  store i32 %100, ptr %21, align 4
  %101 = icmp ugt i32 %100, 0
  br i1 %101, label %45, label %102, !llvm.loop !6

102:                                              ; preds = %98
  %103 = load ptr, ptr %17, align 8
  %104 = ptrtoint ptr %103 to i64
  %105 = load i32, ptr %19, align 4
  %106 = sext i32 %105 to i64
  %107 = add nsw i64 %104, %106
  %108 = inttoptr i64 %107 to ptr
  store ptr %108, ptr %17, align 8
  %109 = load ptr, ptr %18, align 8
  %110 = ptrtoint ptr %109 to i64
  %111 = load i32, ptr %20, align 4
  %112 = sext i32 %111 to i64
  %113 = add nsw i64 %110, %112
  %114 = inttoptr i64 %113 to ptr
  store ptr %114, ptr %18, align 8
  br label %115

115:                                              ; preds = %102
  %116 = load i32, ptr %12, align 4
  %117 = add i32 %116, -1
  store i32 %117, ptr %12, align 4
  %118 = icmp ugt i32 %117, 0
  br i1 %118, label %43, label %119, !llvm.loop !8

119:                                              ; preds = %115
  br label %120

120:                                              ; preds = %119
  ret void
}