; Function Attrs: nofree norecurse nosync nounwind memory(readwrite, inaccessiblemem: none) uwtable
define hidden void @Ushort555RgbToIntArgbConvert(ptr noundef %0, ptr noundef %1, i32 noundef %2, i32 noundef %3, ptr nocapture noundef readonly %4, ptr nocapture noundef readonly %5, ptr nocapture readnone %6, ptr nocapture readnone %7) #1 {
  %9 = getelementptr inbounds i8, ptr %4, i64 32
  %10 = load i32, ptr %9, align 8
  %11 = getelementptr inbounds i8, ptr %5, i64 32
  %12 = load i32, ptr %11, align 8
  %13 = shl i32 %2, 1
  %14 = sub i32 %10, %13
  %15 = shl i32 %2, 2
  %16 = sub i32 %12, %15
  %17 = sext i32 %14 to i64
  %18 = sext i32 %16 to i64
  br label %19

19:                                               ; preds = %49, %8
  %.031 = phi ptr [ %1, %8 ], [ %53, %49 ]
  %.030 = phi ptr [ %0, %8 ], [ %51, %49 ]
  %.0 = phi i32 [ %3, %8 ], [ %54, %49 ]
  br label %20

20:                                               ; preds = %20, %19
  %.033 = phi i32 [ %2, %19 ], [ %48, %20 ]
  %.132 = phi ptr [ %.031, %19 ], [ %47, %20 ]
  %.1 = phi ptr [ %.030, %19 ], [ %44, %20 ]
  %21 = load i16, ptr %.1, align 2
  %22 = zext i16 %21 to i32
  %23 = lshr i32 %22, 7
  %24 = and i32 %23, 248
  %25 = lshr i32 %22, 12
  %26 = and i32 %25, 7
  %27 = or disjoint i32 %24, %26
  %28 = lshr i32 %22, 5
  %29 = and i32 %22, 31
  %30 = shl nuw nsw i32 %29, 3
  %31 = lshr i32 %29, 2
  %32 = or disjoint i32 %30, %31
  %33 = shl nuw nsw i32 %27, 16
  %34 = shl nuw nsw i32 %28, 11
  %35 = and i32 %34, 63488
  %36 = shl nuw nsw i32 %28, 6
  %37 = and i32 %36, 1792
  %38 = or disjoint i32 %35, %37
  %39 = or disjoint i32 %33, %38
  %40 = or disjoint i32 %39, %32
  %41 = or disjoint i32 %40, -16777216
  store i32 %41, ptr %.132, align 4
  %42 = ptrtoint ptr %.1 to i64
  %43 = add nsw i64 %42, 2
  %44 = inttoptr i64 %43 to ptr
  %45 = ptrtoint ptr %.132 to i64
  %46 = add nsw i64 %45, 4
  %47 = inttoptr i64 %46 to ptr
  %48 = add i32 %.033, -1
  %.not = icmp eq i32 %48, 0
  br i1 %.not, label %49, label %20, !llvm.loop !6

49:                                               ; preds = %20
  %50 = add nsw i64 %43, %17
  %51 = inttoptr i64 %50 to ptr
  %52 = add nsw i64 %46, %18
  %53 = inttoptr i64 %52 to ptr
  %54 = add i32 %.0, -1
  %.not35 = icmp eq i32 %54, 0
  br i1 %.not35, label %55, label %19, !llvm.loop !8

55:                                               ; preds = %49
  ret void
}